Certificate:
    Data:
        Version: 1 (0x0)
        Serial Number: 2 (0x2)
        Signature Algorithm: md5WithRSAEncryption
        Issuer: C=US, ST=IL, O=Internet Widgits Pty Ltd, CN=cert authority
        Validity
            Not Before: Feb 12 14:51:47 2013 GMT
            Not After : Feb 12 14:51:47 2014 GMT
        Subject: C=US, ST=IL, O=Internet Widgits Pty Ltd, CN=client_cert
        Subject Public Key Info:
            Public Key Algorithm: rsaEncryption
                Public-Key: (512 bit)
                Modulus:
                    00:c5:fb:16:77:25:f4:8a:e7:24:47:a8:37:c2:83:
                    39:f7:bb:81:d9:27:b3:4e:f8:c6:ca:19:50:20:75:
                    a7:25:5e:1d:f5:a4:a3:ba:83:bc:ca:d6:3c:f1:df:
                    61:5a:bf:45:c1:19:d3:bc:e7:90:e4:8d:21:b9:7a:
                    9b:2b:5c:9c:77
                Exponent: 65537 (0x10001)
    Signature Algorithm: md5WithRSAEncryption
        23:2e:00:ca:46:e8:7b:52:21:78:16:6b:ce:0d:82:12:24:25:
        d2:3d:b8:54:5f:a7:80:4f:9c:1d:ea:37:70:f7:4c:77:b7:66:
        50:06:bd:06:b9:77:43:1f:08:e0:fd:60:32:af:2b:fa:0b:5f:
        57:d8:78:d5:9c:81:c7:11:6a:3c
-----BEGIN CERTIFICATE-----
MIIBkzCCAT0CAQIwDQYJKoZIhvcNAQEEBQAwVjELMAkGA1UEBhMCVVMxCzAJBgNV
BAgMAklMMSEwHwYDVQQKDBhJbnRlcm5ldCBXaWRnaXRzIFB0eSBMdGQxFzAVBgNV
BAMMDmNlcnQgYXV0aG9yaXR5MB4XDTEzMDIxMjE0NTE0N1oXDTE0MDIxMjE0NTE0
N1owUzELMAkGA1UEBhMCVVMxCzAJBgNVBAgMAklMMSEwHwYDVQQKDBhJbnRlcm5l
dCBXaWRnaXRzIFB0eSBMdGQxFDASBgNVBAMMC2NsaWVudF9jZXJ0MFwwDQYJKoZI
hvcNAQEBBQADSwAwSAJBAMX7Fncl9IrnJEeoN8KDOfe7gdkns074xsoZUCB1pyVe
HfWko7qDvMrWPPHfYVq/RcEZ07znkOSNIbl6mytcnHcCAwEAATANBgkqhkiG9w0B
AQQFAANBACMuAMpG6HtSIXgWa84NghIkJdI9uFRfp4BPnB3qN3D3THe3ZlAGvQa5
d0MfCOD9YDKvK/oLX1fYeNWcgccRajw=
-----END CERTIFICATE-----
