Certificate:
    Data:
        Version: 1 (0x0)
        Serial Number: 1 (0x1)
        Signature Algorithm: md5WithRSAEncryption
        Issuer: C=US, ST=IL, O=Internet Widgits Pty Ltd, CN=cert authority
        Validity
            Not Before: Feb 12 14:50:55 2013 GMT
            Not After : Feb 12 14:50:55 2014 GMT
        Subject: C=US, ST=IL, O=Internet Widgits Pty Ltd, CN=server_cert
        Subject Public Key Info:
            Public Key Algorithm: rsaEncryption
                Public-Key: (512 bit)
                Modulus:
                    00:f0:29:2b:45:03:b6:c2:c2:fa:af:d0:5f:a1:c9:
                    e1:03:f2:39:59:d7:ee:68:31:ea:71:57:48:3e:c9:
                    ee:0d:a5:f1:66:92:90:d3:10:af:27:a0:53:a1:a4:
                    1d:8b:86:31:16:53:e7:a6:ae:4c:a3:23:a1:42:f9:
                    86:8b:af:72:35
                Exponent: 65537 (0x10001)
    Signature Algorithm: md5WithRSAEncryption
        57:80:1a:08:fb:38:20:9a:2a:8c:92:ec:8f:fd:5f:fb:02:7a:
        20:82:eb:21:a5:d0:04:8c:b9:5a:9a:50:9f:41:7a:40:ec:0d:
        09:c1:d1:43:6f:73:1d:85:ec:ea:7e:12:0e:7b:0f:72:60:ff:
        95:d1:c9:06:55:9a:05:9d:cf:bc
-----BEGIN CERTIFICATE-----
MIIBkzCCAT0CAQEwDQYJKoZIhvcNAQEEBQAwVjELMAkGA1UEBhMCVVMxCzAJBgNV
BAgMAklMMSEwHwYDVQQKDBhJbnRlcm5ldCBXaWRnaXRzIFB0eSBMdGQxFzAVBgNV
BAMMDmNlcnQgYXV0aG9yaXR5MB4XDTEzMDIxMjE0NTA1NVoXDTE0MDIxMjE0NTA1
NVowUzELMAkGA1UEBhMCVVMxCzAJBgNVBAgMAklMMSEwHwYDVQQKDBhJbnRlcm5l
dCBXaWRnaXRzIFB0eSBMdGQxFDASBgNVBAMMC3NlcnZlcl9jZXJ0MFwwDQYJKoZI
hvcNAQEBBQADSwAwSAJBAPApK0UDtsLC+q/QX6HJ4QPyOVnX7mgx6nFXSD7J7g2l
8WaSkNMQryegU6GkHYuGMRZT56auTKMjoUL5houvcjUCAwEAATANBgkqhkiG9w0B
AQQFAANBAFeAGgj7OCCaKoyS7I/9X/sCeiCC6yGl0ASMuVqaUJ9BekDsDQnB0UNv
cx2F7Op+Eg57D3Jg/5XRyQZVmgWdz7w=
-----END CERTIFICATE-----
